; ModuleID = 'bench/linux/original/ctljack.ll'
source_filename = "bench/linux/original/ctljack.ll"
target datalayout = "e-m:e-p270:32:32-p271:32:32-p272:64:64-i64:64-i128:128-f80:128-n8:16:32:64-S128"
target triple = "x86_64-unknown-linux-gnu"

%struct.snd_kcontrol_new = type { i32, i32, i32, ptr, i32, i32, i32, ptr, ptr, ptr, %union.anon, i64 }
%union.anon = type { ptr }
%struct.snd_ctl_elem_id = type { i32, i32, i32, i32, [44 x i8], i32 }

@jack_detect_kctl = internal constant %struct.snd_kcontrol_new { i32 0, i32 0, i32 0, ptr null, i32 0, i32 1, i32 0, ptr @snd_ctl_boolean_mono_info, ptr @jack_detect_kctl_get, ptr null, %union.anon zeroinitializer, i64 0 }, align 8
@.str = private unnamed_addr constant [6 x i8] c" Jack\00", align 1
@.str.1 = private unnamed_addr constant [8 x i8] c"%s Jack\00", align 1
@.str.2 = private unnamed_addr constant [3 x i8] c"%s\00", align 1

; Function Attrs: fn_ret_thunk_extern nounwind null_pointer_is_valid
define dso_local ptr @snd_kctl_jack_new(ptr noundef %0, ptr noundef %1) local_unnamed_addr #0 align 16 {
  %3 = alloca %struct.snd_ctl_elem_id, align 4
  %4 = tail call ptr @snd_ctl_new1(ptr noundef nonnull @jack_detect_kctl, ptr noundef null) #7
  %5 = icmp eq ptr %4, null
  br i1 %5, label %31, label %6

6:                                                ; preds = %2
  %7 = getelementptr inbounds i8, ptr %4, i64 32
  %8 = tail call i64 @strlen(ptr noundef %0) #7
  %9 = icmp ugt i64 %8, 4
  br i1 %9, label %10, label %16

10:                                               ; preds = %6
  %11 = getelementptr i8, ptr %0, i64 %8
  %12 = getelementptr i8, ptr %11, i64 -5
  %13 = tail call i32 @strncmp(ptr noundef %12, ptr noundef nonnull dereferenceable(6) @.str, i64 noundef 5) #7
  %14 = icmp eq i32 %13, 0
  %15 = select i1 %14, ptr @.str.2, ptr @.str.1
  br label %16

16:                                               ; preds = %10, %6
  %17 = phi ptr [ %15, %10 ], [ @.str.1, %6 ]
  %18 = tail call i32 (ptr, i64, ptr, ...) @snprintf(ptr noundef %7, i64 noundef 44, ptr noundef nonnull %17, ptr noundef %0) #7
  call void @llvm.lifetime.start.p0(i64 64, ptr nonnull %3) #7
  %19 = getelementptr inbounds i8, ptr %3, i64 60
  %20 = getelementptr inbounds i8, ptr %3, i64 16
  call void @llvm.memset.p0.i64(ptr noundef nonnull align 4 dereferenceable(64) %3, i8 0, i64 64, i1 false)
  %21 = call i64 @strscpy(ptr noundef %20, ptr noundef %7, i64 noundef 44) #7
  %22 = call ptr @snd_ctl_find_id(ptr noundef %1, ptr noundef nonnull %3) #7
  %23 = icmp eq ptr %22, null
  br i1 %23, label %.loopexit, label %.preheader

.preheader:                                       ; preds = %16, %.preheader
  %24 = load i32, ptr %19, align 4
  %25 = add i32 %24, 1
  store i32 %25, ptr %19, align 4
  store i32 0, ptr %3, align 4
  %26 = call ptr @snd_ctl_find_id(ptr noundef %1, ptr noundef nonnull %3) #7
  %27 = icmp eq ptr %26, null
  br i1 %27, label %.loopexit, label %.preheader, !llvm.loop !5

.loopexit:                                        ; preds = %.preheader, %16
  %28 = load i32, ptr %19, align 4
  call void @llvm.lifetime.end.p0(i64 64, ptr nonnull %3) #7
  %29 = getelementptr inbounds i8, ptr %4, i64 76
  store i32 %28, ptr %29, align 4
  %30 = getelementptr inbounds i8, ptr %4, i64 120
  store i64 0, ptr %30, align 8
  br label %31

31:                                               ; preds = %.loopexit, %2
  ret ptr %4
}

; Function Attrs: mustprogress nocallback nofree nosync nounwind willreturn memory(argmem: readwrite)
declare void @llvm.lifetime.start.p0(i64 immarg, ptr nocapture) #1

; Function Attrs: null_pointer_is_valid
declare dso_local ptr @snd_ctl_new1(ptr noundef, ptr noundef) local_unnamed_addr #2

; Function Attrs: mustprogress nocallback nofree nosync nounwind willreturn memory(argmem: readwrite)
declare void @llvm.lifetime.end.p0(i64 immarg, ptr nocapture) #1

; Function Attrs: fn_ret_thunk_extern nounwind null_pointer_is_valid
define dso_local void @snd_kctl_jack_report(ptr noundef %0, ptr noundef %1, i1 noundef zeroext %2) local_unnamed_addr #0 align 16 {
  %4 = getelementptr inbounds i8, ptr %1, i64 120
  %5 = load i64, ptr %4, align 8
  %6 = zext i1 %2 to i64
  %7 = icmp eq i64 %5, %6
  br i1 %7, label %10, label %8

8:                                                ; preds = %3
  store i64 %6, ptr %4, align 8
  %9 = getelementptr inbounds i8, ptr %1, i64 16
  tail call void @snd_ctl_notify(ptr noundef %0, i32 noundef 1, ptr noundef %9) #7
  br label %10

10:                                               ; preds = %8, %3
  ret void
}

; Function Attrs: null_pointer_is_valid
declare dso_local void @snd_ctl_notify(ptr noundef, i32 noundef, ptr noundef) local_unnamed_addr #2

; Function Attrs: null_pointer_is_valid
declare dso_local i32 @snd_ctl_boolean_mono_info(ptr noundef, ptr noundef) #2

; Function Attrs: fn_ret_thunk_extern mustprogress nofree norecurse nosync nounwind null_pointer_is_valid willreturn memory(argmem: readwrite)
define internal noundef i32 @jack_detect_kctl_get(ptr nocapture noundef readonly %0, ptr nocapture noundef writeonly %1) #3 align 16 {
  %3 = getelementptr inbounds i8, ptr %0, i64 120
  %4 = load i64, ptr %3, align 8
  %5 = getelementptr inbounds i8, ptr %1, i64 72
  store i64 %4, ptr %5, align 8
  ret i32 0
}

; Function Attrs: mustprogress nofree nounwind null_pointer_is_valid willreturn memory(argmem: read)
declare dso_local i64 @strlen(ptr nocapture noundef) local_unnamed_addr #4

; Function Attrs: mustprogress nofree nounwind null_pointer_is_valid willreturn memory(argmem: read)
declare dso_local i32 @strncmp(ptr nocapture noundef, ptr nocapture noundef, i64 noundef) local_unnamed_addr #4

; Function Attrs: nofree nounwind null_pointer_is_valid
declare dso_local noundef i32 @snprintf(ptr noalias nocapture noundef writeonly, i64 noundef, ptr nocapture noundef readonly, ...) local_unnamed_addr #5

; Function Attrs: mustprogress nocallback nofree nounwind willreturn memory(argmem: write)
declare void @llvm.memset.p0.i64(ptr nocapture writeonly, i8, i64, i1 immarg) #6

; Function Attrs: null_pointer_is_valid
declare dso_local i64 @strscpy(ptr noundef, ptr noundef, i64 noundef) local_unnamed_addr #2

; Function Attrs: null_pointer_is_valid
declare dso_local ptr @snd_ctl_find_id(ptr noundef, ptr noundef) local_unnamed_addr #2


!llvm.module.flags = !{!0, !1, !2, !3, !4}

!0 = !{i32 1, !"wchar_size", i32 2}
!1 = !{i32 8, !"cf-protection-branch", i32 1}
!2 = !{i32 4, !"function_return_thunk_extern", i32 1}
!3 = !{i32 4, !"indirect_branch_cs_prefix", i32 1}
!4 = !{i32 4, !"SkipRaxSetup", i32 1}
!5 = distinct !{!5, !6, !7}
!6 = !{!"llvm.loop.mustprogress"}
!7 = !{!"llvm.loop.unroll.disable"}
